target datalayout = "e-m:e-p270:32:32-p271:32:32-p272:64:64-i64:64-i128:128-f80:128-n8:16:32:64-S128"
target triple = "x86_64-pc-linux-gnu"

%struct.nghttp2_session = type { %struct.nghttp2_map, %struct.nghttp2_stream, %struct.nghttp2_outbound_queue, %struct.nghttp2_outbound_queue, %struct.nghttp2_outbound_queue, [8 x %struct.anon], %struct.nghttp2_active_outbound_item, %struct.nghttp2_inbound_frame, %struct.nghttp2_hd_deflater, %struct.nghttp2_hd_inflater, %struct.nghttp2_session_callbacks, %struct.nghttp2_mem, ptr, ptr, ptr, ptr, ptr, ptr, i64, i64, i64, i64, i64, i64, i64, i64, i64, i64, i64, i64, i32, i32, i32, i32, i32, i32, i32, i32, i32, i32, i32, i32, i8, %struct.nghttp2_settings_storage, %struct.nghttp2_settings_storage, i32, i32, i32, i8, i8, i8, i8, i8, i8, i8, [32 x i8] }
%struct.nghttp2_map = type { ptr, ptr, i64, i32, i32 }
%struct.nghttp2_stream = type { %struct.nghttp2_pq_entry, %struct.nghttp2_pq, i64, i64, i64, i64, i64, i64, ptr, ptr, ptr, ptr, ptr, ptr, ptr, ptr, i64, i32, i32, i32, i32, i32, i32, i32, i32, i32, i32, i16, i32, i8, i8, i8, i8, i8, i8 }
%struct.nghttp2_pq_entry = type { i64 }
%struct.nghttp2_pq = type { ptr, ptr, i64, i64, ptr }
%struct.nghttp2_outbound_queue = type { ptr, ptr, i64 }
%struct.anon = type { %struct.nghttp2_pq }
%struct.nghttp2_active_outbound_item = type { ptr, %struct.nghttp2_bufs, i32 }
%struct.nghttp2_bufs = type { ptr, ptr, ptr, i64, i64, i64, i64, i64 }
%struct.nghttp2_inbound_frame = type { %union.nghttp2_frame, %union.nghttp2_ext_frame_payload, ptr, %struct.nghttp2_buf, %struct.nghttp2_buf, ptr, i64, i64, i64, i64, i32, [32 x i8] }
%union.nghttp2_frame = type { %struct.nghttp2_headers }
%struct.nghttp2_headers = type { %struct.nghttp2_frame_hd, i64, %struct.nghttp2_priority_spec, ptr, i64, i32 }
%struct.nghttp2_frame_hd = type { i64, i32, i8, i8, i8 }
%struct.nghttp2_priority_spec = type { i32, i32, i8 }
%union.nghttp2_ext_frame_payload = type { %struct.nghttp2_ext_altsvc }
%struct.nghttp2_ext_altsvc = type { ptr, i64, ptr, i64 }
%struct.nghttp2_buf = type { ptr, ptr, ptr, ptr, ptr }
%struct.nghttp2_hd_deflater = type { %struct.nghttp2_hd_context, %struct.nghttp2_hd_map, i64, i64, i8 }
%struct.nghttp2_hd_context = type { %struct.nghttp2_hd_ringbuf, ptr, i64, i64, i32, i8 }
%struct.nghttp2_hd_ringbuf = type { ptr, i64, i64, i64 }
%struct.nghttp2_hd_map = type { [128 x ptr] }
%struct.nghttp2_hd_inflater = type { %struct.nghttp2_hd_context, %struct.nghttp2_hd_huff_decode_context, %struct.nghttp2_buf, %struct.nghttp2_buf, ptr, ptr, ptr, ptr, i64, i64, i64, i64, i64, i32, i32, i8, i8, i8 }
%struct.nghttp2_hd_huff_decode_context = type { i16 }
%struct.nghttp2_session_callbacks = type { ptr, ptr, ptr, ptr, ptr, ptr, ptr, ptr, ptr, ptr, ptr, ptr, ptr, ptr, ptr, ptr, ptr, ptr, ptr, ptr, ptr, ptr, ptr }
%struct.nghttp2_mem = type { ptr, ptr, ptr, ptr, ptr }
%struct.nghttp2_settings_storage = type { i32, i32, i32, i32, i32, i32, i32, i32 }
%struct.__va_list_tag = type { i32, i32, ptr, ptr }

; Function Attrs: nounwind uwtable
define internal i32 @session_call_error_callback(ptr noundef %0, i32 noundef %1, ptr noundef %2, ...) #0 {
  %4 = alloca i32, align 4
  %5 = alloca ptr, align 8
  %6 = alloca i32, align 4
  %7 = alloca ptr, align 8
  %8 = alloca i64, align 8
  %9 = alloca [1 x %struct.__va_list_tag], align 16
  %10 = alloca ptr, align 8
  %11 = alloca i32, align 4
  %12 = alloca ptr, align 8
  %13 = alloca i32, align 4
  store ptr %0, ptr %5, align 8, !tbaa !8
  store i32 %1, ptr %6, align 4, !tbaa !4
  store ptr %2, ptr %7, align 8, !tbaa !41
  call void @llvm.lifetime.start.p0(i64 8, ptr %8) #9
  call void @llvm.lifetime.start.p0(i64 24, ptr %9) #9
  call void @llvm.lifetime.start.p0(i64 8, ptr %10) #9
  call void @llvm.lifetime.start.p0(i64 4, ptr %11) #9
  call void @llvm.lifetime.start.p0(i64 8, ptr %12) #9
  %14 = load ptr, ptr %5, align 8, !tbaa !8
  %15 = getelementptr inbounds nuw %struct.nghttp2_session, ptr %14, i32 0, i32 10
  %16 = getelementptr inbounds nuw %struct.nghttp2_session_callbacks, ptr %15, i32 0, i32 21
  %17 = load ptr, ptr %16, align 8, !tbaa !248
  %18 = icmp ne ptr %17, null
  br i1 %18, label %26, label %19

19:                                               ; preds = %3
  %20 = load ptr, ptr %5, align 8, !tbaa !8
  %21 = getelementptr inbounds nuw %struct.nghttp2_session, ptr %20, i32 0, i32 10
  %22 = getelementptr inbounds nuw %struct.nghttp2_session_callbacks, ptr %21, i32 0, i32 22
  %23 = load ptr, ptr %22, align 8, !tbaa !249
  %24 = icmp ne ptr %23, null
  br i1 %24, label %26, label %25

25:                                               ; preds = %19
  store i32 0, ptr %4, align 4
  store i32 1, ptr %13, align 4
  br label %103

26:                                               ; preds = %19, %3
  %27 = load ptr, ptr %5, align 8, !tbaa !8
  %28 = getelementptr inbounds nuw %struct.nghttp2_session, ptr %27, i32 0, i32 11
  store ptr %28, ptr %12, align 8, !tbaa !53
  %29 = getelementptr inbounds [1 x %struct.__va_list_tag], ptr %9, i64 0, i64 0
  call void @llvm.va_start.p0(ptr %29)
  %30 = load ptr, ptr %7, align 8, !tbaa !41
  %31 = getelementptr inbounds [1 x %struct.__va_list_tag], ptr %9, i64 0, i64 0
  %32 = call i32 @vsnprintf(ptr noundef null, i64 noundef 0, ptr noundef %30, ptr noundef %31) #9
  store i32 %32, ptr %11, align 4, !tbaa !4
  %33 = getelementptr inbounds [1 x %struct.__va_list_tag], ptr %9, i64 0, i64 0
  call void @llvm.va_end.p0(ptr %33)
  %34 = load i32, ptr %11, align 4, !tbaa !4
  %35 = icmp slt i32 %34, 0
  br i1 %35, label %36, label %37

36:                                               ; preds = %26
  store i32 -901, ptr %4, align 4
  store i32 1, ptr %13, align 4
  br label %103

37:                                               ; preds = %26
  %38 = load i32, ptr %11, align 4, !tbaa !4
  %39 = add nsw i32 %38, 1
  %40 = sext i32 %39 to i64
  store i64 %40, ptr %8, align 8, !tbaa !44
  %41 = load ptr, ptr %12, align 8, !tbaa !53
  %42 = load i64, ptr %8, align 8, !tbaa !44
  %43 = call ptr @nghttp2_mem_malloc(ptr noundef %41, i64 noundef %42)
  store ptr %43, ptr %10, align 8, !tbaa !41
  %44 = load ptr, ptr %10, align 8, !tbaa !41
  %45 = icmp eq ptr %44, null
  br i1 %45, label %46, label %47

46:                                               ; preds = %37
  store i32 -901, ptr %4, align 4
  store i32 1, ptr %13, align 4
  br label %103

47:                                               ; preds = %37
  %48 = getelementptr inbounds [1 x %struct.__va_list_tag], ptr %9, i64 0, i64 0
  call void @llvm.va_start.p0(ptr %48)
  %49 = load ptr, ptr %10, align 8, !tbaa !41
  %50 = load i64, ptr %8, align 8, !tbaa !44
  %51 = load ptr, ptr %7, align 8, !tbaa !41
  %52 = getelementptr inbounds [1 x %struct.__va_list_tag], ptr %9, i64 0, i64 0
  %53 = call i32 @vsnprintf(ptr noundef %49, i64 noundef %50, ptr noundef %51, ptr noundef %52) #9
  store i32 %53, ptr %11, align 4, !tbaa !4
  %54 = getelementptr inbounds [1 x %struct.__va_list_tag], ptr %9, i64 0, i64 0
  call void @llvm.va_end.p0(ptr %54)
  %55 = load i32, ptr %11, align 4, !tbaa !4
  %56 = icmp slt i32 %55, 0
  br i1 %56, label %57, label %63

57:                                               ; preds = %47
  %58 = load ptr, ptr %12, align 8, !tbaa !53
  %59 = load ptr, ptr %10, align 8, !tbaa !41
  call void @nghttp2_mem_free(ptr noundef %58, ptr noundef %59)
  br label %60

60:                                               ; preds = %57
  br label %61

61:                                               ; preds = %60
  br label %62

62:                                               ; preds = %61
  store i32 0, ptr %4, align 4
  store i32 1, ptr %13, align 4
  br label %103

63:                                               ; preds = %47
  %64 = load ptr, ptr %5, align 8, !tbaa !8
  %65 = getelementptr inbounds nuw %struct.nghttp2_session, ptr %64, i32 0, i32 10
  %66 = getelementptr inbounds nuw %struct.nghttp2_session_callbacks, ptr %65, i32 0, i32 22
  %67 = load ptr, ptr %66, align 8, !tbaa !249
  %68 = icmp ne ptr %67, null
  br i1 %68, label %69, label %83

69:                                               ; preds = %63
  %70 = load ptr, ptr %5, align 8, !tbaa !8
  %71 = getelementptr inbounds nuw %struct.nghttp2_session, ptr %70, i32 0, i32 10
  %72 = getelementptr inbounds nuw %struct.nghttp2_session_callbacks, ptr %71, i32 0, i32 22
  %73 = load ptr, ptr %72, align 8, !tbaa !249
  %74 = load ptr, ptr %5, align 8, !tbaa !8
  %75 = load i32, ptr %6, align 4, !tbaa !4
  %76 = load ptr, ptr %10, align 8, !tbaa !41
  %77 = load i32, ptr %11, align 4, !tbaa !4
  %78 = sext i32 %77 to i64
  %79 = load ptr, ptr %5, align 8, !tbaa !8
  %80 = getelementptr inbounds nuw %struct.nghttp2_session, ptr %79, i32 0, i32 12
  %81 = load ptr, ptr %80, align 8, !tbaa !92
  %82 = call i32 %73(ptr noundef %74, i32 noundef %75, ptr noundef %76, i64 noundef %78, ptr noundef %81)
  store i32 %82, ptr %11, align 4, !tbaa !4
  br label %96

83:                                               ; preds = %63
  %84 = load ptr, ptr %5, align 8, !tbaa !8
  %85 = getelementptr inbounds nuw %struct.nghttp2_session, ptr %84, i32 0, i32 10
  %86 = getelementptr inbounds nuw %struct.nghttp2_session_callbacks, ptr %85, i32 0, i32 21
  %87 = load ptr, ptr %86, align 8, !tbaa !248
  %88 = load ptr, ptr %5, align 8, !tbaa !8
  %89 = load ptr, ptr %10, align 8, !tbaa !41
  %90 = load i32, ptr %11, align 4, !tbaa !4
  %91 = sext i32 %90 to i64
  %92 = load ptr, ptr %5, align 8, !tbaa !8
  %93 = getelementptr inbounds nuw %struct.nghttp2_session, ptr %92, i32 0, i32 12
  %94 = load ptr, ptr %93, align 8, !tbaa !92
  %95 = call i32 %87(ptr noundef %88, ptr noundef %89, i64 noundef %91, ptr noundef %94)
  store i32 %95, ptr %11, align 4, !tbaa !4
  br label %96

96:                                               ; preds = %83, %69
  %97 = load ptr, ptr %12, align 8, !tbaa !53
  %98 = load ptr, ptr %10, align 8, !tbaa !41
  call void @nghttp2_mem_free(ptr noundef %97, ptr noundef %98)
  %99 = load i32, ptr %11, align 4, !tbaa !4
  %100 = icmp ne i32 %99, 0
  br i1 %100, label %101, label %102

101:                                              ; preds = %96
  store i32 -902, ptr %4, align 4
  store i32 1, ptr %13, align 4
  br label %103

102:                                              ; preds = %96
  store i32 0, ptr %4, align 4
  store i32 1, ptr %13, align 4
  br label %103

103:                                              ; preds = %102, %101, %62, %46, %36, %25
  call void @llvm.lifetime.end.p0(i64 8, ptr %12) #9
  call void @llvm.lifetime.end.p0(i64 4, ptr %11) #9
  call void @llvm.lifetime.end.p0(i64 8, ptr %10) #9
  call void @llvm.lifetime.end.p0(i64 24, ptr %9) #9
  call void @llvm.lifetime.end.p0(i64 8, ptr %8) #9
  %104 = load i32, ptr %4, align 4
  ret i32 %104
}