; Function Attrs: nounwind uwtable
define internal range(i32 -902, 1) i32 @session_call_error_callback(ptr noundef %0, i32 noundef range(i32 -536, -530) %1, ptr noundef readonly captures(none) %2, ...) unnamed_addr #1 {
  %4 = alloca [1 x %struct.__va_list_tag], align 16
  call void @llvm.lifetime.start.p0(i64 24, ptr nonnull %4) #20
  %5 = getelementptr inbounds nuw i8, ptr %0, i64 2512
  %6 = load ptr, ptr %5, align 8, !tbaa !269
  %.not = icmp eq ptr %6, null
  br i1 %.not, label %7, label %10

7:                                                ; preds = %3
  %8 = getelementptr inbounds nuw i8, ptr %0, i64 2520
  %9 = load ptr, ptr %8, align 8, !tbaa !270
  %.not35 = icmp eq ptr %9, null
  br i1 %.not35, label %38, label %10

10:                                               ; preds = %7, %3
  %11 = getelementptr inbounds nuw i8, ptr %0, i64 2528
  call void @llvm.va_start.p0(ptr nonnull %4)
  %12 = call i32 @vsnprintf(ptr noundef null, i64 noundef 0, ptr noundef %2, ptr noundef nonnull %4) #20
  call void @llvm.va_end.p0(ptr nonnull %4)
  %13 = icmp slt i32 %12, 0
  br i1 %13, label %38, label %14

14:                                               ; preds = %10
  %15 = add nuw nsw i32 %12, 1
  %16 = zext nneg i32 %15 to i64
  %17 = call ptr @nghttp2_mem_malloc(ptr noundef nonnull %11, i64 noundef %16) #20
  %18 = icmp eq ptr %17, null
  br i1 %18, label %38, label %19

19:                                               ; preds = %14
  call void @llvm.va_start.p0(ptr nonnull %4)
  %20 = call i32 @vsnprintf(ptr noundef nonnull %17, i64 noundef %16, ptr noundef %2, ptr noundef nonnull %4) #20
  call void @llvm.va_end.p0(ptr nonnull %4)
  %21 = icmp slt i32 %20, 0
  br i1 %21, label %22, label %23

22:                                               ; preds = %19
  call void @nghttp2_mem_free(ptr noundef nonnull %11, ptr noundef nonnull %17) #20
  br label %38

23:                                               ; preds = %19
  %24 = getelementptr inbounds nuw i8, ptr %0, i64 2520
  %25 = load ptr, ptr %24, align 8, !tbaa !270
  %.not36 = icmp eq ptr %25, null
  br i1 %.not36, label %31, label %26

26:                                               ; preds = %23
  %27 = zext nneg i32 %20 to i64
  %28 = getelementptr inbounds nuw i8, ptr %0, i64 2568
  %29 = load ptr, ptr %28, align 8, !tbaa !89
  %30 = call i32 %25(ptr noundef nonnull %0, i32 noundef %1, ptr noundef nonnull %17, i64 noundef %27, ptr noundef %29) #20
  br label %37

31:                                               ; preds = %23
  %32 = load ptr, ptr %5, align 8, !tbaa !269
  %33 = zext nneg i32 %20 to i64
  %34 = getelementptr inbounds nuw i8, ptr %0, i64 2568
  %35 = load ptr, ptr %34, align 8, !tbaa !89
  %36 = call i32 %32(ptr noundef nonnull %0, ptr noundef nonnull %17, i64 noundef %33, ptr noundef %35) #20
  br label %37

37:                                               ; preds = %31, %26
  %.030 = phi i32 [ %30, %26 ], [ %36, %31 ]
  call void @nghttp2_mem_free(ptr noundef nonnull %11, ptr noundef nonnull %17) #20
  %.not37 = icmp eq i32 %.030, 0
  %. = select i1 %.not37, i32 0, i32 -902
  br label %38

38:                                               ; preds = %37, %14, %10, %7, %22
  %.0 = phi i32 [ 0, %22 ], [ 0, %7 ], [ -901, %10 ], [ -901, %14 ], [ %., %37 ]
  call void @llvm.lifetime.end.p0(i64 24, ptr nonnull %4) #20
  ret i32 %.0
}